target datalayout = "e-m:e-p270:32:32-p271:32:32-p272:64:64-i64:64-i128:128-f80:128-n8:16:32:64-S128"
target triple = "x86_64-pc-linux-gnu"

%"class.google::protobuf::internal::InternalMetadata" = type { i64 }
%"class.google::protobuf::internal::HasBits" = type { [1 x i32] }
%"struct.google::protobuf::internal::ArenaStringPtr" = type { %"class.google::protobuf::internal::TaggedPtr" }
%"class.google::protobuf::internal::TaggedPtr" = type { ptr }
%"union.opencv_onnx::TypeProto::ValueUnion" = type { ptr }
%"class.google::protobuf::Message" = type { %"class.google::protobuf::MessageLite" }
%"class.google::protobuf::MessageLite" = type { ptr, %"class.google::protobuf::internal::InternalMetadata" }
%"class.google::protobuf::internal::CachedSize" = type { %"struct.std::atomic" }
%"struct.std::atomic" = type { %"struct.std::__atomic_base" }
%"struct.std::__atomic_base" = type { i32 }
%"class.std::__cxx11::basic_string" = type { %"struct.std::__cxx11::basic_string<char>::_Alloc_hider", i64, %union.anon.24 }
%"struct.std::__cxx11::basic_string<char>::_Alloc_hider" = type { ptr }
%union.anon.24 = type { i64, [8 x i8] }
%"struct.google::protobuf::internal::InternalMetadata::ContainerBase" = type { ptr }
%"class.opencv_onnx::TypeProto" = type <{ %"class.google::protobuf::Message", %"class.google::protobuf::internal::HasBits", %"class.google::protobuf::internal::CachedSize", %"struct.google::protobuf::internal::ArenaStringPtr", %"union.opencv_onnx::TypeProto::ValueUnion", [1 x i32], [4 x i8] }>

@_ZN11opencv_onnx16TypeProto_TensorD1Ev = hidden unnamed_addr alias void (ptr), ptr @_ZN11opencv_onnx16TypeProto_TensorD2Ev

; Function Attrs: mustprogress nounwind uwtable
define linkonce_odr hidden noundef ptr @_ZNK6google8protobuf8internal16InternalMetadata8PtrValueINS0_5ArenaEEEPT_v(ptr noundef nonnull align 8 dereferenceable(8) %0) #5 comdat align 2 {
  %2 = alloca ptr, align 8
  store ptr %0, ptr %2, align 8, !tbaa !69
  %3 = load ptr, ptr %2, align 8
  %4 = getelementptr inbounds nuw %"class.google::protobuf::internal::InternalMetadata", ptr %3, i32 0, i32 0
  %5 = load i64, ptr %4, align 8, !tbaa !341
  %6 = and i64 %5, -4
  %7 = inttoptr i64 %6 to ptr
  ret ptr %7
}

; Function Attrs: mustprogress nounwind uwtable
define linkonce_odr hidden noundef ptr @_ZNK6google8protobuf8internal16InternalMetadata8PtrValueINS2_13ContainerBaseEEEPT_v(ptr noundef nonnull align 8 dereferenceable(8) %0) #5 comdat align 2 {
  %2 = alloca ptr, align 8
  store ptr %0, ptr %2, align 8, !tbaa !69
  %3 = load ptr, ptr %2, align 8
  %4 = getelementptr inbounds nuw %"class.google::protobuf::internal::InternalMetadata", ptr %3, i32 0, i32 0
  %5 = load i64, ptr %4, align 8, !tbaa !341
  %6 = and i64 %5, -4
  %7 = inttoptr i64 %6 to ptr
  ret ptr %7
}

; Function Attrs: mustprogress nounwind uwtable
define linkonce_odr hidden void @_ZNSt11char_traitsIcE6assignERcRKc(ptr noundef nonnull align 1 dereferenceable(1) %0, ptr noundef nonnull align 1 dereferenceable(1) %1) #5 comdat align 2 {
  %3 = alloca ptr, align 8
  %4 = alloca ptr, align 8
  store ptr %0, ptr %3, align 8, !tbaa !93
  store ptr %1, ptr %4, align 8, !tbaa !93
  %5 = load ptr, ptr %4, align 8, !tbaa !93
  %6 = load i8, ptr %5, align 1, !tbaa !68
  %7 = load ptr, ptr %3, align 8, !tbaa !93
  store i8 %6, ptr %7, align 1, !tbaa !68
  ret void
}

; Function Attrs: mustprogress nounwind uwtable
define available_externally noundef ptr @_ZNKSt7__cxx1112basic_stringIcSt11char_traitsIcESaIcEE7_M_dataEv(ptr noundef nonnull align 8 dereferenceable(32) %0) #5 align 2 {
  %2 = alloca ptr, align 8
  store ptr %0, ptr %2, align 8, !tbaa !73
  %3 = load ptr, ptr %2, align 8
  %4 = getelementptr inbounds nuw %"class.std::__cxx11::basic_string", ptr %3, i32 0, i32 0
  %5 = getelementptr inbounds nuw %"struct.std::__cxx11::basic_string<char>::_Alloc_hider", ptr %4, i32 0, i32 0
  %6 = load ptr, ptr %5, align 8, !tbaa !353
  ret ptr %6
}

; Function Attrs: mustprogress nounwind uwtable
define available_externally void @_ZNSt7__cxx1112basic_stringIcSt11char_traitsIcESaIcEE9_M_lengthEm(ptr noundef nonnull align 8 dereferenceable(32) %0, i64 noundef %1) #5 align 2 {
  %3 = alloca ptr, align 8
  %4 = alloca i64, align 8
  store ptr %0, ptr %3, align 8, !tbaa !73
  store i64 %1, ptr %4, align 8, !tbaa !105
  %5 = load ptr, ptr %3, align 8
  %6 = load i64, ptr %4, align 8, !tbaa !105
  %7 = getelementptr inbounds nuw %"class.std::__cxx11::basic_string", ptr %5, i32 0, i32 1
  store i64 %6, ptr %7, align 8, !tbaa !140
  ret void
}

; Function Attrs: alwaysinline mustprogress nounwind uwtable
define linkonce_odr hidden noundef zeroext i1 @_ZNK6google8protobuf8internal16InternalMetadata19HasUnknownFieldsTagEv(ptr noundef nonnull align 8 dereferenceable(8) %0) #7 comdat align 2 {
  %2 = alloca ptr, align 8
  store ptr %0, ptr %2, align 8, !tbaa !69
  %3 = load ptr, ptr %2, align 8
  %4 = getelementptr inbounds nuw %"class.google::protobuf::internal::InternalMetadata", ptr %3, i32 0, i32 0
  %5 = load i64, ptr %4, align 8, !tbaa !341
  %6 = and i64 %5, 1
  %7 = icmp ne i64 %6, 0
  ret i1 %7
}

; Function Attrs: alwaysinline mustprogress uwtable
define linkonce_odr hidden noundef ptr @_ZNK6google8protobuf8internal16InternalMetadata5arenaEv(ptr noundef nonnull align 8 dereferenceable(8) %0) #10 comdat align 2 {
  %2 = alloca ptr, align 8
  %3 = alloca ptr, align 8
  store ptr %0, ptr %3, align 8, !tbaa !69
  %4 = load ptr, ptr %3, align 8
  %5 = call noundef zeroext i1 @_ZNK6google8protobuf8internal16InternalMetadata19have_unknown_fieldsEv(ptr noundef nonnull align 8 dereferenceable(8) %4)
  %6 = zext i1 %5 to i64
  %7 = call i64 @llvm.expect.i64(i64 %6, i64 0)
  %8 = icmp ne i64 %7, 0
  br i1 %8, label %9, label %13

9:                                                ; preds = %1
  %10 = call noundef ptr @_ZNK6google8protobuf8internal16InternalMetadata8PtrValueINS2_13ContainerBaseEEEPT_v(ptr noundef nonnull align 8 dereferenceable(8) %4)
  %11 = getelementptr inbounds nuw %"struct.google::protobuf::internal::InternalMetadata::ContainerBase", ptr %10, i32 0, i32 0
  %12 = load ptr, ptr %11, align 8, !tbaa !346
  store ptr %12, ptr %2, align 8
  br label %15

13:                                               ; preds = %1
  %14 = call noundef ptr @_ZNK6google8protobuf8internal16InternalMetadata8PtrValueINS0_5ArenaEEEPT_v(ptr noundef nonnull align 8 dereferenceable(8) %4)
  store ptr %14, ptr %2, align 8
  br label %15

15:                                               ; preds = %13, %9
  %16 = load ptr, ptr %2, align 8
  ret ptr %16
}

; Function Attrs: noinline noreturn nounwind uwtable
define linkonce_odr hidden void @__clang_call_terminate(ptr noundef %0) #13 comdat {
  %2 = call ptr @__cxa_begin_catch(ptr %0) #3
  call void @_ZSt9terminatev() #20
  unreachable
}

; Function Attrs: mustprogress uwtable
define available_externally void @_ZNSt7__cxx1112basic_stringIcSt11char_traitsIcESaIcEE13_M_set_lengthEm(ptr noundef nonnull align 8 dereferenceable(32) %0, i64 noundef %1) #4 align 2 {
  %3 = alloca ptr, align 8
  %4 = alloca i64, align 8
  %5 = alloca i8, align 1
  store ptr %0, ptr %3, align 8, !tbaa !73
  store i64 %1, ptr %4, align 8, !tbaa !105
  %6 = load ptr, ptr %3, align 8
  %7 = load i64, ptr %4, align 8, !tbaa !105
  call void @_ZNSt7__cxx1112basic_stringIcSt11char_traitsIcESaIcEE9_M_lengthEm(ptr noundef nonnull align 8 dereferenceable(32) %6, i64 noundef %7)
  %8 = call noundef ptr @_ZNKSt7__cxx1112basic_stringIcSt11char_traitsIcESaIcEE7_M_dataEv(ptr noundef nonnull align 8 dereferenceable(32) %6)
  %9 = load i64, ptr %4, align 8, !tbaa !105
  %10 = getelementptr inbounds nuw i8, ptr %8, i64 %9
  call void @llvm.lifetime.start.p0(i64 1, ptr %5) #3
  store i8 0, ptr %5, align 1, !tbaa !68
  call void @_ZNSt11char_traitsIcE6assignERcRKc(ptr noundef nonnull align 1 dereferenceable(1) %10, ptr noundef nonnull align 1 dereferenceable(1) %5) #3
  call void @llvm.lifetime.end.p0(i64 1, ptr %5) #3
  ret void
}

; Function Attrs: mustprogress nounwind uwtable
define linkonce_odr hidden noundef i64 @_ZNK6google8protobuf8internal9TaggedPtrINSt7__cxx1112basic_stringIcSt11char_traitsIcESaIcEEEE6as_intEv(ptr noundef nonnull align 8 dereferenceable(8) %0) #5 comdat align 2 {
  %2 = alloca ptr, align 8
  store ptr %0, ptr %2, align 8, !tbaa !348
  %3 = load ptr, ptr %2, align 8
  %4 = getelementptr inbounds nuw %"class.google::protobuf::internal::TaggedPtr", ptr %3, i32 0, i32 0
  %5 = load ptr, ptr %4, align 8, !tbaa !350
  %6 = ptrtoint ptr %5 to i64
  ret i64 %6
}

; Function Attrs: alwaysinline mustprogress uwtable
define linkonce_odr hidden noundef zeroext i1 @_ZNK6google8protobuf8internal16InternalMetadata19have_unknown_fieldsEv(ptr noundef nonnull align 8 dereferenceable(8) %0) #10 comdat align 2 {
  %2 = alloca ptr, align 8
  store ptr %0, ptr %2, align 8, !tbaa !69
  %3 = load ptr, ptr %2, align 8
  %4 = call noundef zeroext i1 @_ZNK6google8protobuf8internal16InternalMetadata19HasUnknownFieldsTagEv(ptr noundef nonnull align 8 dereferenceable(8) %3)
  ret i1 %4
}

; Function Attrs: mustprogress uwtable
define linkonce_odr hidden noundef ptr @_ZNK6google8protobuf11MessageLite21GetArenaForAllocationEv(ptr noundef nonnull align 8 dereferenceable(16) %0) #4 comdat align 2 {
  %2 = alloca ptr, align 8
  store ptr %0, ptr %2, align 8, !tbaa !65
  %3 = load ptr, ptr %2, align 8
  %4 = getelementptr inbounds nuw %"class.google::protobuf::MessageLite", ptr %3, i32 0, i32 1
  %5 = call noundef ptr @_ZNK6google8protobuf8internal16InternalMetadata5arenaEv(ptr noundef nonnull align 8 dereferenceable(8) %4)
  ret ptr %5
}

; Function Attrs: inlinehint mustprogress nounwind uwtable
define linkonce_odr hidden noundef i32 @_ZNK11opencv_onnx9TypeProto10value_caseEv(ptr noundef nonnull align 8 dereferenceable(48) %0) #8 comdat align 2 {
  %2 = alloca ptr, align 8
  store ptr %0, ptr %2, align 8, !tbaa !170
  %3 = load ptr, ptr %2, align 8
  %4 = getelementptr inbounds nuw %"class.opencv_onnx::TypeProto", ptr %3, i32 0, i32 5
  %5 = getelementptr inbounds [1 x i32], ptr %4, i64 0, i64 0
  %6 = load i32, ptr %5, align 8, !tbaa !8
  ret i32 %6
}

; Function Attrs: mustprogress nounwind uwtable
define available_externally void @_ZNSt7__cxx1112basic_stringIcSt11char_traitsIcESaIcEE5clearEv(ptr noundef nonnull align 8 dereferenceable(32) %0) #5 align 2 personality ptr @__gxx_personality_v0 {
  %2 = alloca ptr, align 8
  store ptr %0, ptr %2, align 8, !tbaa !73
  %3 = load ptr, ptr %2, align 8
  invoke void @_ZNSt7__cxx1112basic_stringIcSt11char_traitsIcESaIcEE13_M_set_lengthEm(ptr noundef nonnull align 8 dereferenceable(32) %3, i64 noundef 0)
          to label %4 unwind label %5

4:                                                ; preds = %1
  ret void

5:                                                ; preds = %1
  %6 = landingpad { ptr, i32 }
          catch ptr null
  %7 = extractvalue { ptr, i32 } %6, 0
  call void @__clang_call_terminate(ptr %7) #20
  unreachable
}

; Function Attrs: mustprogress uwtable
define linkonce_odr hidden noundef ptr @_ZNK6google8protobuf8internal9TaggedPtrINSt7__cxx1112basic_stringIcSt11char_traitsIcESaIcEEEE3GetEv(ptr noundef nonnull align 8 dereferenceable(8) %0) #4 comdat align 2 {
  %2 = alloca ptr, align 8
  store ptr %0, ptr %2, align 8, !tbaa !348
  %3 = load ptr, ptr %2, align 8
  %4 = call noundef i64 @_ZNK6google8protobuf8internal9TaggedPtrINSt7__cxx1112basic_stringIcSt11char_traitsIcESaIcEEEE6as_intEv(ptr noundef nonnull align 8 dereferenceable(8) %3)
  %5 = and i64 %4, -2
  %6 = inttoptr i64 %5 to ptr
  ret ptr %6
}

; Function Attrs: alwaysinline mustprogress uwtable
define linkonce_odr hidden void @_ZN6google8protobuf8internal16InternalMetadata5ClearINS0_15UnknownFieldSetEEEvv(ptr noundef nonnull align 8 dereferenceable(8) %0) #10 comdat align 2 {
  %2 = alloca ptr, align 8
  store ptr %0, ptr %2, align 8, !tbaa !69
  %3 = load ptr, ptr %2, align 8
  %4 = call noundef zeroext i1 @_ZNK6google8protobuf8internal16InternalMetadata19have_unknown_fieldsEv(ptr noundef nonnull align 8 dereferenceable(8) %3)
  br i1 %4, label %5, label %6

5:                                                ; preds = %1
  call void @_ZN6google8protobuf8internal16InternalMetadata7DoClearINS0_15UnknownFieldSetEEEvv(ptr noundef nonnull align 8 dereferenceable(8) %3)
  br label %6

6:                                                ; preds = %5, %1
  ret void
}

; Function Attrs: alwaysinline mustprogress nounwind uwtable
define linkonce_odr hidden void @_ZN6google8protobuf8internal7HasBitsILm1EE5ClearEv(ptr noundef nonnull align 4 dereferenceable(4) %0) #7 comdat align 2 {
  %2 = alloca ptr, align 8
  store ptr %0, ptr %2, align 8, !tbaa !45
  %3 = load ptr, ptr %2, align 8
  %4 = getelementptr inbounds nuw %"class.google::protobuf::internal::HasBits", ptr %3, i32 0, i32 0
  %5 = getelementptr inbounds [1 x i32], ptr %4, i64 0, i64 0
  call void @llvm.memset.p0.i64(ptr align 4 %5, i8 0, i64 4, i1 false)
  ret void
}

; Function Attrs: mustprogress uwtable
define hidden void @_ZN11opencv_onnx9TypeProto11clear_valueEv(ptr noundef nonnull align 8 dereferenceable(48) %0) #4 align 2 {
  %2 = alloca ptr, align 8
  store ptr %0, ptr %2, align 8, !tbaa !170
  %3 = load ptr, ptr %2, align 8
  %4 = call noundef i32 @_ZNK11opencv_onnx9TypeProto10value_caseEv(ptr noundef nonnull align 8 dereferenceable(48) %3)
  switch i32 %4, label %16 [
    i32 1, label %5
    i32 0, label %15
  ]

5:                                                ; preds = %1
  %6 = call noundef ptr @_ZNK6google8protobuf11MessageLite21GetArenaForAllocationEv(ptr noundef nonnull align 8 dereferenceable(16) %3)
  %7 = icmp eq ptr %6, null
  br i1 %7, label %8, label %14

8:                                                ; preds = %5
  %9 = getelementptr inbounds nuw %"class.opencv_onnx::TypeProto", ptr %3, i32 0, i32 4
  %10 = load ptr, ptr %9, align 8, !tbaa !68
  %11 = icmp eq ptr %10, null
  br i1 %11, label %13, label %12

12:                                               ; preds = %8
  call void @_ZN11opencv_onnx16TypeProto_TensorD1Ev(ptr noundef nonnull align 8 dereferenceable(40) %10) #3
  call void @_ZdlPv(ptr noundef %10) #22
  br label %13

13:                                               ; preds = %12, %8
  br label %14

14:                                               ; preds = %13, %5
  br label %16

15:                                               ; preds = %1
  br label %16

16:                                               ; preds = %1, %15, %14
  %17 = getelementptr inbounds nuw %"class.opencv_onnx::TypeProto", ptr %3, i32 0, i32 5
  %18 = getelementptr inbounds [1 x i32], ptr %17, i64 0, i64 0
  store i32 0, ptr %18, align 8, !tbaa !8
  ret void
}

; Function Attrs: inlinehint mustprogress uwtable
define linkonce_odr hidden void @_ZN6google8protobuf8internal14ArenaStringPtr22ClearNonDefaultToEmptyEv(ptr noundef nonnull align 8 dereferenceable(8) %0) #6 comdat align 2 {
  %2 = alloca ptr, align 8
  store ptr %0, ptr %2, align 8, !tbaa !71
  %3 = load ptr, ptr %2, align 8
  %4 = getelementptr inbounds nuw %"struct.google::protobuf::internal::ArenaStringPtr", ptr %3, i32 0, i32 0
  %5 = call noundef ptr @_ZNK6google8protobuf8internal9TaggedPtrINSt7__cxx1112basic_stringIcSt11char_traitsIcESaIcEEEE3GetEv(ptr noundef nonnull align 8 dereferenceable(8) %4)
  call void @_ZNSt7__cxx1112basic_stringIcSt11char_traitsIcESaIcEE5clearEv(ptr noundef nonnull align 8 dereferenceable(32) %5) #3
  ret void
}

; Function Attrs: alwaysinline mustprogress nounwind uwtable
define linkonce_odr hidden noundef nonnull align 4 dereferenceable(4) ptr @_ZN6google8protobuf8internal7HasBitsILm1EEixEi(ptr noundef nonnull align 4 dereferenceable(4) %0, i32 noundef %1) #7 comdat align 2 {
  %3 = alloca ptr, align 8
  %4 = alloca i32, align 4
  store ptr %0, ptr %3, align 8, !tbaa !45
  store i32 %1, ptr %4, align 4, !tbaa !8
  %5 = load ptr, ptr %3, align 8
  %6 = getelementptr inbounds nuw %"class.google::protobuf::internal::HasBits", ptr %5, i32 0, i32 0
  %7 = load i32, ptr %4, align 4, !tbaa !8
  %8 = sext i32 %7 to i64
  %9 = getelementptr inbounds [1 x i32], ptr %6, i64 0, i64 %8
  ret ptr %9
}

; Function Attrs: mustprogress uwtable
define hidden void @_ZN11opencv_onnx9TypeProto5ClearEv(ptr noundef nonnull align 8 dereferenceable(48) %0) unnamed_addr #4 align 2 {
  %2 = alloca ptr, align 8
  %3 = alloca i32, align 4
  store ptr %0, ptr %2, align 8, !tbaa !170
  %4 = load ptr, ptr %2, align 8
  call void @llvm.lifetime.start.p0(i64 4, ptr %3) #3
  store i32 0, ptr %3, align 4, !tbaa !8
  %5 = getelementptr inbounds nuw %"class.opencv_onnx::TypeProto", ptr %4, i32 0, i32 1
  %6 = call noundef nonnull align 4 dereferenceable(4) ptr @_ZN6google8protobuf8internal7HasBitsILm1EEixEi(ptr noundef nonnull align 4 dereferenceable(4) %5, i32 noundef 0)
  %7 = load i32, ptr %6, align 4, !tbaa !8
  store i32 %7, ptr %3, align 4, !tbaa !8
  %8 = load i32, ptr %3, align 4, !tbaa !8
  %9 = and i32 %8, 1
  %10 = icmp ne i32 %9, 0
  br i1 %10, label %11, label %13

11:                                               ; preds = %1
  %12 = getelementptr inbounds nuw %"class.opencv_onnx::TypeProto", ptr %4, i32 0, i32 3
  call void @_ZN6google8protobuf8internal14ArenaStringPtr22ClearNonDefaultToEmptyEv(ptr noundef nonnull align 8 dereferenceable(8) %12)
  br label %13

13:                                               ; preds = %11, %1
  call void @_ZN11opencv_onnx9TypeProto11clear_valueEv(ptr noundef nonnull align 8 dereferenceable(48) %4)
  %14 = getelementptr inbounds nuw %"class.opencv_onnx::TypeProto", ptr %4, i32 0, i32 1
  call void @_ZN6google8protobuf8internal7HasBitsILm1EE5ClearEv(ptr noundef nonnull align 4 dereferenceable(4) %14)
  %15 = getelementptr inbounds nuw %"class.google::protobuf::MessageLite", ptr %4, i32 0, i32 1
  call void @_ZN6google8protobuf8internal16InternalMetadata5ClearINS0_15UnknownFieldSetEEEvv(ptr noundef nonnull align 8 dereferenceable(8) %15)
  call void @llvm.lifetime.end.p0(i64 4, ptr %3) #3
  ret void
}

; Function Attrs: mustprogress uwtable
define hidden void @_ZN11opencv_onnx9TypeProto8CopyFromERKS0_(ptr noundef nonnull align 8 dereferenceable(48) %0, ptr noundef nonnull align 8 dereferenceable(48) %1) #4 align 2 {
  %3 = alloca ptr, align 8
  %4 = alloca ptr, align 8
  store ptr %0, ptr %3, align 8, !tbaa !170
  store ptr %1, ptr %4, align 8, !tbaa !170
  %5 = load ptr, ptr %3, align 8
  %6 = load ptr, ptr %4, align 8, !tbaa !170
  %7 = icmp eq ptr %6, %5
  br i1 %7, label %8, label %9

8:                                                ; preds = %2
  br label %11

9:                                                ; preds = %2
  call void @_ZN11opencv_onnx9TypeProto5ClearEv(ptr noundef nonnull align 8 dereferenceable(48) %5)
  %10 = load ptr, ptr %4, align 8, !tbaa !170
  call void @_ZN11opencv_onnx9TypeProto9MergeFromERKS0_(ptr noundef nonnull align 8 dereferenceable(48) %5, ptr noundef nonnull align 8 dereferenceable(48) %10)
  br label %11

11:                                               ; preds = %9, %8
  ret void
}