; Function Attrs: mustprogress uwtable
define hidden void @_ZN11opencv_onnx9TypeProto8CopyFromERKS0_(ptr noundef nonnull align 8 dereferenceable(48) %0, ptr noundef nonnull readonly align 8 dereferenceable(48) %1) local_unnamed_addr #3 align 2 personality ptr @__gxx_personality_v0 {
  %3 = icmp eq ptr %1, %0
  br i1 %3, label %37, label %4

4:                                                ; preds = %2
  %5 = getelementptr inbounds nuw i8, ptr %0, i64 16
  %6 = load i32, ptr %5, align 8, !tbaa !51
  %7 = and i32 %6, 1
  %.not.i = icmp eq i32 %7, 0
  br i1 %.not.i, label %16, label %8

8:                                                ; preds = %4
  %9 = getelementptr inbounds nuw i8, ptr %0, i64 24
  %10 = load ptr, ptr %9, align 8, !tbaa !41
  %11 = ptrtoint ptr %10 to i64
  %12 = and i64 %11, -2
  %13 = inttoptr i64 %12 to ptr
  %14 = getelementptr inbounds nuw i8, ptr %13, i64 8
  store i64 0, ptr %14, align 8, !tbaa !53
  %15 = load ptr, ptr %13, align 8, !tbaa !57
  store i8 0, ptr %15, align 1, !tbaa !46
  br label %16

16:                                               ; preds = %8, %4
  %17 = getelementptr inbounds nuw i8, ptr %0, i64 40
  %18 = load i32, ptr %17, align 8, !tbaa !51
  %cond.i.i = icmp eq i32 %18, 1
  br i1 %cond.i.i, label %19, label %_ZN11opencv_onnx9TypeProto11clear_valueEv.exit.i

19:                                               ; preds = %16
  %20 = getelementptr inbounds nuw i8, ptr %0, i64 8
  %21 = load i64, ptr %20, align 8, !tbaa !33
  %22 = and i64 %21, 1
  %.not.i.i.i = icmp eq i64 %22, 0
  %23 = and i64 %21, -4
  %24 = inttoptr i64 %23 to ptr
  br i1 %.not.i.i.i, label %_ZNK6google8protobuf11MessageLite21GetArenaForAllocationEv.exit.i.i, label %25, !prof !43

25:                                               ; preds = %19
  %26 = load ptr, ptr %24, align 8, !tbaa !44
  br label %_ZNK6google8protobuf11MessageLite21GetArenaForAllocationEv.exit.i.i

_ZNK6google8protobuf11MessageLite21GetArenaForAllocationEv.exit.i.i: ; preds = %25, %19
  %.0.i.i.i.i = phi ptr [ %26, %25 ], [ %24, %19 ]
  %27 = icmp eq ptr %.0.i.i.i.i, null
  br i1 %27, label %28, label %_ZN11opencv_onnx9TypeProto11clear_valueEv.exit.i

28:                                               ; preds = %_ZNK6google8protobuf11MessageLite21GetArenaForAllocationEv.exit.i.i
  %29 = getelementptr inbounds nuw i8, ptr %0, i64 32
  %30 = load ptr, ptr %29, align 8, !tbaa !46
  %31 = icmp eq ptr %30, null
  br i1 %31, label %_ZN11opencv_onnx9TypeProto11clear_valueEv.exit.i, label %32

32:                                               ; preds = %28
  tail call void @_ZN11opencv_onnx16TypeProto_TensorD2Ev(ptr noundef nonnull align 8 dereferenceable(40) %30) #22
  tail call void @_ZdlPv(ptr noundef nonnull %30) #23
  br label %_ZN11opencv_onnx9TypeProto11clear_valueEv.exit.i

_ZN11opencv_onnx9TypeProto11clear_valueEv.exit.i: ; preds = %32, %28, %_ZNK6google8protobuf11MessageLite21GetArenaForAllocationEv.exit.i.i, %16
  store i32 0, ptr %17, align 8, !tbaa !51
  store i32 0, ptr %5, align 8
  %33 = getelementptr inbounds nuw i8, ptr %0, i64 8
  %34 = load i64, ptr %33, align 8, !tbaa !33
  %35 = and i64 %34, 1
  %.not1.i = icmp eq i64 %35, 0
  br i1 %.not1.i, label %_ZN11opencv_onnx9TypeProto5ClearEv.exit, label %36

36:                                               ; preds = %_ZN11opencv_onnx9TypeProto11clear_valueEv.exit.i
  tail call void @_ZN6google8protobuf8internal16InternalMetadata7DoClearINS0_15UnknownFieldSetEEEvv(ptr noundef nonnull align 8 dereferenceable(8) %33)
  br label %_ZN11opencv_onnx9TypeProto5ClearEv.exit

_ZN11opencv_onnx9TypeProto5ClearEv.exit:          ; preds = %_ZN11opencv_onnx9TypeProto11clear_valueEv.exit.i, %36
  tail call void @_ZN11opencv_onnx9TypeProto9MergeFromERKS0_(ptr noundef nonnull align 8 dereferenceable(48) %0, ptr noundef nonnull align 8 dereferenceable(48) %1)
  br label %37

37:                                               ; preds = %2, %_ZN11opencv_onnx9TypeProto5ClearEv.exit
  ret void
}